; Function Attrs: mustprogress uwtable
define internal noundef zeroext i1 @"_ZNSt17_Function_handlerIFvvEZN9grpc_core12_GLOBAL__N_15RlsLb10RlsRequest17OnRlsCallCompleteEPvN4absl12lts_202308026StatusEE3$_0E10_M_managerERSt9_Any_dataRKSB_St18_Manager_operation"(ptr nocapture noundef nonnull align 8 dereferenceable(16) %__dest, ptr nocapture noundef nonnull readonly align 8 dereferenceable(16) %__source, i32 noundef %__op) #3 align 2 personality ptr @__gxx_personality_v0 {
entry:
  switch i32 %__op, label %sw.epilog [
    i32 0, label %sw.bb
    i32 1, label %sw.bb1
    i32 3, label %sw.bb6.i
    i32 2, label %sw.bb4.i
  ]

sw.bb:                                            ; preds = %entry
  store ptr @"_ZTIZN9grpc_core12_GLOBAL__N_15RlsLb10RlsRequest17OnRlsCallCompleteEPvN4absl12lts_202308026StatusEE3$_0", ptr %__dest, align 8
  br label %sw.epilog

sw.bb1:                                           ; preds = %entry
  %__source.val = load ptr, ptr %__source, align 8
  store ptr %__source.val, ptr %__dest, align 8
  br label %sw.epilog

sw.bb4.i:                                         ; preds = %entry
  %__source.val5 = load ptr, ptr %__source, align 8
  %call5.val.i = load ptr, ptr %__source.val5, align 8
  %0 = getelementptr i8, ptr %__source.val5, i64 8
  %call5.val6.i = load i64, ptr %0, align 8
  %call.i.i.i = tail call noalias noundef nonnull dereferenceable(16) ptr @_Znwm(i64 noundef 16) #30
  store ptr %call5.val.i, ptr %call.i.i.i, align 8
  %1 = getelementptr inbounds i8, ptr %call.i.i.i, i64 8
  store i64 %call5.val6.i, ptr %1, align 8
  %and.i.i.i.i.i.i.i = and i64 %call5.val6.i, 1
  %cmp.i.i.i.i.i.i.i = icmp eq i64 %and.i.i.i.i.i.i.i, 0
  br i1 %cmp.i.i.i.i.i.i.i, label %"_ZNSt14_Function_base13_Base_managerIZN9grpc_core12_GLOBAL__N_15RlsLb10RlsRequest17OnRlsCallCompleteEPvN4absl12lts_202308026StatusEE3$_0E15_M_init_functorIRKS9_EEvRSt9_Any_dataOT_.exit.i", label %if.then.i.i.i.i.i.i

if.then.i.i.i.i.i.i:                              ; preds = %sw.bb4.i
  %sub.i.i.i.i.i.i.i = add nsw i64 %call5.val6.i, -1
  %2 = inttoptr i64 %sub.i.i.i.i.i.i.i to ptr
  %3 = atomicrmw add ptr %2, i32 1 monotonic, align 4
  br label %"_ZNSt14_Function_base13_Base_managerIZN9grpc_core12_GLOBAL__N_15RlsLb10RlsRequest17OnRlsCallCompleteEPvN4absl12lts_202308026StatusEE3$_0E15_M_init_functorIRKS9_EEvRSt9_Any_dataOT_.exit.i"

"_ZNSt14_Function_base13_Base_managerIZN9grpc_core12_GLOBAL__N_15RlsLb10RlsRequest17OnRlsCallCompleteEPvN4absl12lts_202308026StatusEE3$_0E15_M_init_functorIRKS9_EEvRSt9_Any_dataOT_.exit.i": ; preds = %if.then.i.i.i.i.i.i, %sw.bb4.i
  store ptr %call.i.i.i, ptr %__dest, align 8
  br label %sw.epilog

sw.bb6.i:                                         ; preds = %entry
  %__dest.val.i = load ptr, ptr %__dest, align 8
  %isnull.i.i = icmp eq ptr %__dest.val.i, null
  br i1 %isnull.i.i, label %sw.epilog, label %delete.notnull.i.i

delete.notnull.i.i:                               ; preds = %sw.bb6.i
  %4 = getelementptr i8, ptr %__dest.val.i, i64 8
  %.val.i.i = load i64, ptr %4, align 8
  %and.i.i.i.i.i.i = and i64 %.val.i.i, 1
  %cmp.i.i.i.i.i.i = icmp eq i64 %and.i.i.i.i.i.i, 0
  br i1 %cmp.i.i.i.i.i.i, label %"_ZZN9grpc_core12_GLOBAL__N_15RlsLb10RlsRequest17OnRlsCallCompleteEPvN4absl12lts_202308026StatusEEN3$_0D2Ev.exit.i.i", label %if.then.i.i.i.i.i

if.then.i.i.i.i.i:                                ; preds = %delete.notnull.i.i
  invoke void @_ZN4absl12lts_202308026Status15UnrefNonInlinedEm(i64 noundef %.val.i.i)
          to label %"_ZZN9grpc_core12_GLOBAL__N_15RlsLb10RlsRequest17OnRlsCallCompleteEPvN4absl12lts_202308026StatusEEN3$_0D2Ev.exit.i.i" unwind label %terminate.lpad.i.i.i.i

terminate.lpad.i.i.i.i:                           ; preds = %if.then.i.i.i.i.i
  %5 = landingpad { ptr, i32 }
          catch ptr null
  %6 = extractvalue { ptr, i32 } %5, 0
  tail call void @__clang_call_terminate(ptr %6) #34
  unreachable

"_ZZN9grpc_core12_GLOBAL__N_15RlsLb10RlsRequest17OnRlsCallCompleteEPvN4absl12lts_202308026StatusEEN3$_0D2Ev.exit.i.i": ; preds = %if.then.i.i.i.i.i, %delete.notnull.i.i
  tail call void @_ZdlPv(ptr noundef nonnull %__dest.val.i) #33
  br label %sw.epilog

sw.epilog:                                        ; preds = %entry, %"_ZZN9grpc_core12_GLOBAL__N_15RlsLb10RlsRequest17OnRlsCallCompleteEPvN4absl12lts_202308026StatusEEN3$_0D2Ev.exit.i.i", %sw.bb6.i, %"_ZNSt14_Function_base13_Base_managerIZN9grpc_core12_GLOBAL__N_15RlsLb10RlsRequest17OnRlsCallCompleteEPvN4absl12lts_202308026StatusEE3$_0E15_M_init_functorIRKS9_EEvRSt9_Any_dataOT_.exit.i", %sw.bb1, %sw.bb
  ret i1 false
}